; Function Attrs: mustprogress nofree norecurse nosync nounwind willreturn memory(argmem: read) uwtable
define noundef i64 @_ZNK8proxygen13HTTPException19inferHTTP3ErrorCodeEv(ptr nocapture noundef nonnull readonly align 8 dereferenceable(96) %this) local_unnamed_addr #4 align 2 personality ptr @__gxx_personality_v0 {
entry:
  %httpStatusCode_.i = getelementptr inbounds i8, ptr %this, i64 52
  %0 = load i32, ptr %httpStatusCode_.i, align 4
  %cmp.i.not = icmp eq i32 %0, 0
  br i1 %cmp.i.not, label %if.else, label %return

if.else:                                          ; preds = %entry
  %hasValue.i.i = getelementptr inbounds i8, ptr %this, i64 73
  %1 = load i8, ptr %hasValue.i.i, align 1
  %2 = and i8 %1, 1
  %tobool.i.i.not = icmp eq i8 %2, 0
  br i1 %tobool.i.i.not, label %return, label %_ZNK8proxygen13HTTPException18getCodecStatusCodeEv.exit

_ZNK8proxygen13HTTPException18getCodecStatusCodeEv.exit: ; preds = %if.else
  %codecStatusCode_.i = getelementptr inbounds i8, ptr %this, i64 72
  %3 = load i8, ptr %codecStatusCode_.i, align 8
  %4 = icmp ult i8 %3, 12
  br i1 %4, label %switch.lookup, label %return

switch.lookup:                                    ; preds = %_ZNK8proxygen13HTTPException18getCodecStatusCodeEv.exit
  %5 = zext nneg i8 %3 to i64
  %switch.gep = getelementptr inbounds [12 x i64], ptr @switch.table._ZN8proxygenlsERSoRKNS_13HTTPExceptionE, i64 0, i64 %5
  %switch.load = load i64, ptr %switch.gep, align 8
  br label %return

return:                                           ; preds = %_ZNK8proxygen13HTTPException18getCodecStatusCodeEv.exit, %switch.lookup, %if.else, %entry
  %retval.0 = phi i64 [ 256, %entry ], [ 257, %if.else ], [ %switch.load, %switch.lookup ], [ 257, %_ZNK8proxygen13HTTPException18getCodecStatusCodeEv.exit ]
  ret i64 %retval.0
}